target datalayout = "e-m:e-p270:32:32-p271:32:32-p272:64:64-i64:64-i128:128-f80:128-n8:16:32:64-S128"
target triple = "x86_64-pc-linux-gnu"

%class.JVMCIObject = type <{ ptr, i8, [7 x i8] }>
%class.JVMCIRuntime = type <{ i32, [4 x i8], %class.JVMCIObject, ptr, ptr, i32, i32, ptr, ptr, %class.GrowableArray, i32, i8, [3 x i8] }>
%class.GrowableArray = type { %class.GrowableArrayWithAllocator, %class.GrowableArrayMetadata }
%class.GrowableArrayWithAllocator = type { %class.GrowableArrayView }
%class.GrowableArrayView = type { %class.GrowableArrayBase, ptr }
%class.GrowableArrayBase = type { i32, i32 }
%class.GrowableArrayMetadata = type { i64 }

@JVMCITraceLevel = external global i64, align 8
@JVMCIEventLogLevel = external global i64, align 8
@_ZN5JVMCI18_compiler_runtimesE = external global ptr, align 8
@.str.45 = private unnamed_addr constant [48 x i8] c"using pre-existing JVMCI runtime %d in shutdown\00", align 1
@_ZN5JVMCI26_shutdown_compiler_runtimeE = external global ptr, align 8
@.str.46 = private unnamed_addr constant [41 x i8] c"using reserved shutdown JVMCI runtime %d\00", align 1
@_ZN12JVMCIRuntimeC1EPS_ib = hidden unnamed_addr alias void (ptr, ptr, i32, i1), ptr @_ZN12JVMCIRuntimeC2EPS_ib

; Function Attrs: mustprogress nounwind uwtable
define linkonce_odr hidden noundef i32 @_ZNK12JVMCIRuntime2idEv(ptr noundef nonnull align 8 dereferenceable(93) %0) #1 comdat align 2 {
  %2 = alloca ptr, align 8
  store ptr %0, ptr %2, align 8
  %3 = load ptr, ptr %2, align 8
  %4 = getelementptr inbounds %class.JVMCIRuntime, ptr %3, i32 0, i32 6
  %5 = load i32, ptr %4, align 4
  ret i32 %5
}

; Function Attrs: mustprogress nounwind uwtable
define hidden void @_ZN12JVMCIRuntime17pre_attach_threadEP10JavaThread(ptr noundef nonnull align 8 dereferenceable(93) %0, ptr noundef %1) #1 align 2 {
  %3 = alloca ptr, align 8
  %4 = alloca ptr, align 8
  store ptr %0, ptr %3, align 8
  store ptr %1, ptr %4, align 8
  %5 = load ptr, ptr %3, align 8
  %6 = getelementptr inbounds %class.JVMCIRuntime, ptr %5, i32 0, i32 10
  %7 = load i32, ptr %6, align 8
  %8 = add nsw i32 %7, 1
  store i32 %8, ptr %6, align 8
  ret void
}

; Function Attrs: mustprogress nounwind uwtable
define hidden noundef ptr @_ZN12JVMCIRuntime26select_runtime_in_shutdownEP10JavaThread(ptr noundef %0) #1 align 2 {
  %2 = alloca i64, align 8
  %3 = alloca i8, align 1
  %4 = alloca i64, align 8
  %5 = alloca ptr, align 8
  %6 = alloca ptr, align 8
  %7 = alloca ptr, align 8
  %8 = alloca ptr, align 8
  store ptr %0, ptr %6, align 8
  %9 = load ptr, ptr @_ZN5JVMCI18_compiler_runtimesE, align 8
  store ptr %9, ptr %7, align 8
  br label %10

10:                                               ; preds = %33, %1
  %11 = load ptr, ptr %7, align 8
  %12 = icmp ne ptr %11, null
  br i1 %12, label %13, label %37

13:                                               ; preds = %10
  %14 = load ptr, ptr %7, align 8
  %15 = getelementptr inbounds %class.JVMCIRuntime, ptr %14, i32 0, i32 10
  %16 = load i32, ptr %15, align 8
  %17 = icmp ne i32 %16, -1
  br i1 %17, label %18, label %32

18:                                               ; preds = %13
  %19 = load ptr, ptr %7, align 8
  %20 = load ptr, ptr %6, align 8
  call void @_ZN12JVMCIRuntime17pre_attach_threadEP10JavaThread(ptr noundef nonnull align 8 dereferenceable(93) %19, ptr noundef %20)
  %21 = load i64, ptr @JVMCITraceLevel, align 8
  %22 = icmp slt i64 %21, 1
  br i1 %22, label %23, label %27

23:                                               ; preds = %18
  %24 = load i64, ptr @JVMCIEventLogLevel, align 8
  %25 = icmp slt i64 %24, 1
  br i1 %25, label %26, label %27

26:                                               ; preds = %23
  br label %30

27:                                               ; preds = %23, %18
  %28 = load ptr, ptr %7, align 8
  %29 = call noundef i32 @_ZNK12JVMCIRuntime2idEv(ptr noundef nonnull align 8 dereferenceable(93) %28)
  call void (ptr, ...) @_ZN5JVMCI6event1EPKcz(ptr noundef @.str.45, i32 noundef %29)
  br label %30

30:                                               ; preds = %27, %26
  %31 = load ptr, ptr %7, align 8
  store ptr %31, ptr %5, align 8
  br label %58

32:                                               ; preds = %13
  br label %33

33:                                               ; preds = %32
  %34 = load ptr, ptr %7, align 8
  %35 = getelementptr inbounds %class.JVMCIRuntime, ptr %34, i32 0, i32 7
  %36 = load ptr, ptr %35, align 8
  store ptr %36, ptr %7, align 8
  br label %10, !llvm.loop !11

37:                                               ; preds = %10
  %38 = load ptr, ptr @_ZN5JVMCI26_shutdown_compiler_runtimeE, align 8
  %39 = icmp eq ptr %38, null
  br i1 %39, label %40, label %45

40:                                               ; preds = %37
  store i64 96, ptr %4, align 8
  %41 = load i64, ptr %4, align 8
  store i64 %41, ptr %2, align 8
  store i8 8, ptr %3, align 1
  %42 = load i64, ptr %2, align 8
  %43 = load i8, ptr %3, align 1
  %44 = call noundef ptr @_Z12AllocateHeapm8MEMFLAGSN17AllocFailStrategy13AllocFailEnumE(i64 noundef %42, i8 noundef zeroext %43, i32 noundef 0) #11
  call void @_ZN12JVMCIRuntimeC1EPS_ib(ptr noundef nonnull align 8 dereferenceable(93) %44, ptr noundef null, i32 noundef -2, i1 noundef zeroext true)
  store ptr %44, ptr @_ZN5JVMCI26_shutdown_compiler_runtimeE, align 8
  br label %45

45:                                               ; preds = %40, %37
  %46 = load ptr, ptr @_ZN5JVMCI26_shutdown_compiler_runtimeE, align 8
  store ptr %46, ptr %8, align 8
  %47 = load i64, ptr @JVMCITraceLevel, align 8
  %48 = icmp slt i64 %47, 1
  br i1 %48, label %49, label %53

49:                                               ; preds = %45
  %50 = load i64, ptr @JVMCIEventLogLevel, align 8
  %51 = icmp slt i64 %50, 1
  br i1 %51, label %52, label %53

52:                                               ; preds = %49
  br label %56

53:                                               ; preds = %49, %45
  %54 = load ptr, ptr %8, align 8
  %55 = call noundef i32 @_ZNK12JVMCIRuntime2idEv(ptr noundef nonnull align 8 dereferenceable(93) %54)
  call void (ptr, ...) @_ZN5JVMCI6event1EPKcz(ptr noundef @.str.46, i32 noundef %55)
  br label %56

56:                                               ; preds = %53, %52
  %57 = load ptr, ptr %8, align 8
  store ptr %57, ptr %5, align 8
  br label %58

58:                                               ; preds = %56, %30
  %59 = load ptr, ptr %5, align 8
  ret ptr %59
}