; Function Attrs: mustprogress nounwind uwtable
define hidden noundef ptr @_ZN12JVMCIRuntime26select_runtime_in_shutdownEP10JavaThread(ptr nocapture noundef readnone %0) local_unnamed_addr #0 align 2 {
  %.01519 = load ptr, ptr @_ZN5JVMCI18_compiler_runtimesE, align 8
  %.not20 = icmp eq ptr %.01519, null
  br i1 %.not20, label %._crit_edge, label %.lr.ph

.lr.ph:                                           ; preds = %1, %11
  %.01521 = phi ptr [ %.015, %11 ], [ %.01519, %1 ]
  %2 = getelementptr inbounds i8, ptr %.01521, i64 88
  %3 = load i32, ptr %2, align 8
  %.not16 = icmp eq i32 %3, -1
  br i1 %.not16, label %11, label %4

4:                                                ; preds = %.lr.ph
  %5 = getelementptr inbounds i8, ptr %.01521, i64 88
  %6 = add nuw nsw i32 %3, 1
  store i32 %6, ptr %5, align 8
  %7 = load i64, ptr @JVMCITraceLevel, align 8
  %8 = icmp slt i64 %7, 1
  %9 = load i64, ptr @JVMCIEventLogLevel, align 8
  %10 = icmp slt i64 %9, 1
  %or.cond = select i1 %8, i1 %10, i1 false
  br i1 %or.cond, label %25, label %.sink.split

11:                                               ; preds = %.lr.ph
  %12 = getelementptr inbounds i8, ptr %.01521, i64 48
  %.015 = load ptr, ptr %12, align 8
  %.not = icmp eq ptr %.015, null
  br i1 %.not, label %._crit_edge, label %.lr.ph, !llvm.loop !38

._crit_edge:                                      ; preds = %11, %1
  %13 = load ptr, ptr @_ZN5JVMCI26_shutdown_compiler_runtimeE, align 8
  %14 = icmp eq ptr %13, null
  br i1 %14, label %15, label %17

15:                                               ; preds = %._crit_edge
  %16 = tail call noundef ptr @_Z12AllocateHeapm8MEMFLAGSN17AllocFailStrategy13AllocFailEnumE(i64 noundef 96, i8 noundef zeroext 8, i32 noundef 0) #15
  tail call void @_ZN12JVMCIRuntimeC2EPS_ib(ptr noundef nonnull align 8 dereferenceable(93) %16, ptr noundef null, i32 noundef -2, i1 noundef zeroext true)
  store ptr %16, ptr @_ZN5JVMCI26_shutdown_compiler_runtimeE, align 8
  br label %17

17:                                               ; preds = %15, %._crit_edge
  %18 = phi ptr [ %16, %15 ], [ %13, %._crit_edge ]
  %19 = load i64, ptr @JVMCITraceLevel, align 8
  %20 = icmp slt i64 %19, 1
  %21 = load i64, ptr @JVMCIEventLogLevel, align 8
  %22 = icmp slt i64 %21, 1
  %or.cond3 = select i1 %20, i1 %22, i1 false
  br i1 %or.cond3, label %25, label %.sink.split

.sink.split:                                      ; preds = %17, %4
  %.sink = phi ptr [ %.01521, %4 ], [ %18, %17 ]
  %.str.46.sink = phi ptr [ @.str.45, %4 ], [ @.str.46, %17 ]
  %23 = getelementptr inbounds i8, ptr %.sink, i64 44
  %24 = load i32, ptr %23, align 4
  tail call void (ptr, ...) @_ZN5JVMCI6event1EPKcz(ptr noundef nonnull %.str.46.sink, i32 noundef %24) #15
  br label %25

25:                                               ; preds = %.sink.split, %17, %4
  %.0 = phi ptr [ %.01521, %4 ], [ %18, %17 ], [ %.sink, %.sink.split ]
  ret ptr %.0
}